; Function Attrs: nounwind uwtable
define void @b2Shape_SetPolygon(i64 %0, ptr noundef readonly captures(none) %1) local_unnamed_addr #0 {
  %.sroa.2.0.extract.shift = lshr i64 %0, 32
  %3 = trunc nuw i64 %.sroa.2.0.extract.shift to i32
  %4 = and i32 %3, 65535
  %5 = tail call ptr @b2GetWorldLocked(i32 noundef %4) #10
  %6 = icmp eq ptr %5, null
  br i1 %6, label %14, label %7

7:                                                ; preds = %2
  %8 = getelementptr i8, ptr %5, i64 1256
  %.val = load ptr, ptr %8, align 8, !tbaa !14
  %9 = shl i64 %0, 32
  %sext.i = add i64 %9, -4294967296
  %10 = ashr exact i64 %sext.i, 32
  %11 = getelementptr inbounds %struct.b2Shape, ptr %.val, i64 %10
  %12 = getelementptr inbounds nuw i8, ptr %11, i64 132
  tail call void @llvm.memcpy.p0.p0.i64(ptr noundef nonnull align 4 dereferenceable(144) %12, ptr noundef nonnull align 4 dereferenceable(144) %1, i64 144, i1 false), !tbaa.struct !167
  %13 = getelementptr inbounds nuw i8, ptr %11, i64 20
  store i32 3, ptr %13, align 4, !tbaa !171
  tail call fastcc void @b2ResetProxy(ptr noundef %5, ptr noundef %11, i1 noundef zeroext true)
  br label %14

14:                                               ; preds = %2, %7
  ret void
}